; Function Attrs: nounwind uwtable
define dso_local void @sapi_handle_post(ptr noundef %0) local_unnamed_addr #0 {
  %2 = load ptr, ptr getelementptr inbounds nuw (i8, ptr @sapi_globals, i64 80), align 8, !tbaa !73
  %3 = icmp ne ptr %2, null
  %4 = load ptr, ptr getelementptr inbounds nuw (i8, ptr @sapi_globals, i64 88), align 8
  %5 = icmp ne ptr %4, null
  %or.cond = select i1 %3, i1 %5, i1 false
  br i1 %or.cond, label %6, label %10

6:                                                ; preds = %1
  %7 = getelementptr inbounds nuw i8, ptr %2, i64 24
  %8 = load ptr, ptr %7, align 8, !tbaa !74
  tail call void %8(ptr noundef nonnull %4, ptr noundef %0) #19
  %9 = load ptr, ptr getelementptr inbounds nuw (i8, ptr @sapi_globals, i64 88), align 8, !tbaa !76
  tail call void @_efree(ptr noundef %9) #19
  store ptr null, ptr getelementptr inbounds nuw (i8, ptr @sapi_globals, i64 88), align 8, !tbaa !76
  br label %10

10:                                               ; preds = %6, %1
  ret void
}